; Function Attrs: nounwind sspstrong uwtable
define dso_local void @tcg_gen_dup_i32_vec(i32 noundef %vece, ptr noundef %r, ptr noundef %a) local_unnamed_addr #0 {
entry:
  %0 = tail call align 8 ptr @llvm.threadlocal.address.p0(ptr align 8 @tcg_ctx)
  %1 = load ptr, ptr %0, align 8
  %2 = ptrtoint ptr %r to i64
  %add.ptr.i.i.i = getelementptr i8, ptr %1, i64 %2
  %3 = ptrtoint ptr %add.ptr.i.i.i to i64
  %4 = ptrtoint ptr %a to i64
  %add.ptr.i.i = getelementptr i8, ptr %1, i64 %4
  %5 = ptrtoint ptr %add.ptr.i.i to i64
  %bf.load = load i64, ptr %add.ptr.i.i.i, align 8
  %6 = trunc i64 %bf.load to i32
  %call.i = tail call ptr @tcg_emit_op(i32 noundef 150, i32 noundef 2) #5
  %bf.load.i = load i32, ptr %call.i, align 8
  %bf.value.i = add i32 %6, 16580608
  %bf.clear.i = and i32 %bf.load.i, 65535
  %bf.value2.i = shl i32 %vece, 24
  %bf.value.masked.i = and i32 %bf.value.i, 16711680
  %bf.clear4.i = or disjoint i32 %bf.value.masked.i, %bf.clear.i
  %bf.set5.i = or disjoint i32 %bf.clear4.i, %bf.value2.i
  store i32 %bf.set5.i, ptr %call.i, align 8
  %args.i = getelementptr inbounds nuw i8, ptr %call.i, i64 32
  store i64 %3, ptr %args.i, align 8
  %arrayidx7.i = getelementptr i8, ptr %call.i, i64 40
  store i64 %5, ptr %arrayidx7.i, align 8
  ret void
}